Certificate:
    Data:
        Version: 3 (0x2)
        Serial Number: 4096 (0x1000)
    Signature Algorithm: md5WithRSAEncryption
        Issuer: C=US, ST=UTAH, L=Salt Lake City, O=msd, CN=ca
        Validity
            Not Before: Mar 30 01:24:12 2023 GMT
            Not After : Mar 29 01:24:12 2024 GMT
        Subject: C=US, ST=UTAH, O=msd, CN=server
        Subject Public Key Info:
            Public Key Algorithm: rsaEncryption
                Public-Key: (4096 bit)
                Modulus:
                    00:a0:7c:40:a6:ba:9e:7a:d5:48:75:c6:2f:ca:39:
                    9d:a1:4d:c7:c4:e7:d7:97:b8:ae:5b:db:25:7c:1f:
                    a4:5b:79:1f:57:73:36:29:92:10:3b:cc:e3:3f:77:
                    ed:7c:74:20:70:be:b0:db:a2:81:41:56:82:3a:ae:
                    6d:fe:02:88:94:f2:ad:f7:df:1c:8c:b8:40:7d:43:
                    89:50:3e:b2:62:c5:05:1f:93:6a:08:47:e7:4f:4c:
                    b8:20:58:c2:cf:9d:3d:2c:42:5c:8b:9d:c3:9b:8e:
                    60:d3:45:c4:82:4a:a8:7e:e3:70:d5:a4:77:51:b1:
                    53:b3:32:d9:55:85:c3:ff:e9:69:71:e7:d8:d6:4d:
                    6c:2f:26:df:87:49:4a:78:b0:30:a0:7d:b9:25:67:
                    aa:d8:85:e2:d1:4f:70:bc:d4:e3:e7:dd:74:bc:e5:
                    57:26:9c:69:7b:af:46:9c:f1:52:cb:47:71:4d:1a:
                    dd:0a:7f:d3:38:ba:6c:8c:2f:d5:32:01:db:c9:45:
                    9a:00:9f:33:bb:2f:c0:ab:da:bb:f3:32:6d:b7:31:
                    f4:c9:f3:4a:f5:94:74:cc:a9:16:fc:c2:38:f9:d5:
                    6e:f3:e0:68:90:b5:78:da:2d:20:6f:ff:52:33:6b:
                    8f:91:65:0d:1f:56:9d:9a:cb:79:76:b7:82:a3:48:
                    07:ca:81:24:f7:33:6a:c5:cc:0b:dd:34:9e:17:4d:
                    ae:09:20:eb:9e:70:04:e5:b1:b8:77:21:49:46:a9:
                    c7:7a:52:94:56:6a:a0:86:91:3e:bb:cc:80:c2:34:
                    d7:4f:a8:f4:49:31:a0:78:1c:cd:48:e2:e6:21:4a:
                    11:26:16:18:19:70:82:95:05:f5:04:1b:65:b7:cb:
                    d6:31:0c:6a:de:75:ff:4d:75:17:28:d2:7f:12:8a:
                    4f:b0:46:b6:07:6a:83:e6:7f:d1:9b:64:f6:d6:e7:
                    4c:29:be:98:e2:63:ed:99:4e:db:2e:8a:94:28:64:
                    01:e2:0c:d7:cc:e6:bd:ca:28:a1:1b:d1:e6:45:af:
                    16:08:5e:32:3b:eb:87:8e:fc:0b:b8:9d:69:f7:43:
                    a2:2d:73:f3:8f:02:51:94:c0:af:41:84:33:5c:42:
                    c8:fb:5e:49:ca:48:ae:0f:0e:8d:97:18:60:ba:0a:
                    78:55:13:55:46:3a:40:46:47:70:6b:93:26:a6:66:
                    14:3e:4a:d9:ed:af:d8:62:36:49:aa:cd:44:86:01:
                    29:09:13:79:e7:aa:57:4a:d3:99:01:48:d3:09:07:
                    a6:7d:ce:13:45:c2:ba:93:43:94:c5:ec:c8:ce:4e:
                    e4:18:02:c9:90:08:5c:d7:0c:fd:9f:b3:d0:fa:50:
                    1e:75:b3
                Exponent: 65537 (0x10001)
        X509v3 extensions:
            X509v3 Basic Constraints: 
                CA:FALSE
            Netscape Comment: 
                OpenSSL Generated Certificate
            X509v3 Subject Key Identifier: 
                6E:36:4A:2A:0F:06:E4:FE:3C:30:A0:D2:27:C1:C2:43:E9:9F:64:31
            X509v3 Authority Key Identifier: 
                DirName:/C=US/ST=UTAH/L=Salt Lake City/O=msd/CN=ca
                serial:A9:9B:78:70:4D:B4:24:C7

    Signature Algorithm: md5WithRSAEncryption
         2c:55:7e:19:38:47:f0:a5:a8:49:e6:dc:a4:0c:67:45:fa:d9:
         67:72:32:36:05:85:d9:16:5d:3c:00:7d:3a:08:2a:93:29:1f:
         e8:0c:45:fa:9d:af:91:df:b0:d0:42:36:5a:30:4f:18:d4:90:
         78:57:61:51:70:09:8e:a2:ad:a6:a7:95:4f:1f:b0:e6:0e:9b:
         aa:e2:0d:57:e1:21:8b:85:05:50:31:3e:87:52:81:15:9e:22:
         bb:dd:e2:46:8b:3b:8c:9c:87:93:6f:a2:84:1d:40:4f:d8:3b:
         8b:3f:1c:a6:90:b8:d7:fb:e3:8c:fb:c9:71:ed:98:56:27:c1:
         d3:d0:7c:80:3e:5d:db:43:1c:9b:8d:2d:1a:27:0e:34:af:ca:
         be:af:b9:37:98:9d:2e:52:0a:d3:ce:16:03:fb:5b:11:18:83:
         c8:36:71:0a:89:02:b7:f7:11:61:a9:6c:bf:c5:92:ca:37:eb:
         0b:15:ca:7f:34:d6:9a:0d:9a:7c:3d:5f:f0:97:f7:7a:85:28:
         24:93:cf:5d:e5:b9:36:22:78:02:5a:ca:f2:32:09:66:1d:9b:
         4a:7d:dd:b6:4c:f8:a7:9d:da:b8:3e:0e:68:51:8f:18:b4:94:
         7b:37:59:5a:81:a0:86:a2:be:29:5d:59:3e:a4:21:ba:1c:25:
         a1:5a:ab:21:3b:f1:41:1f:0e:3e:17:46:73:a7:4c:df:58:2a:
         23:a2:60:f5:43:79:f3:bc:97:ae:f2:2f:a8:e6:32:2f:9b:4c:
         2a:c2:bc:60:29:5a:13:76:90:87:9e:4a:52:02:bf:98:36:51:
         b5:b0:2d:11:53:4e:b9:5c:41:93:0c:0b:c6:ef:c2:0d:5e:f5:
         85:f2:ea:66:b4:2d:5a:40:28:e3:61:3e:2c:e9:5c:76:45:5a:
         e1:a1:57:2d:eb:03:d7:dc:52:50:13:80:f0:3e:24:5d:98:a2:
         8e:0d:b2:7c:aa:12:54:fe:b3:87:55:3e:55:64:4f:cd:fc:f4:
         e5:38:b5:63:db:d3:3e:8d:12:45:a6:9a:2b:35:71:2d:01:40:
         50:fc:de:46:91:41:16:cd:f7:97:03:60:61:51:88:ac:ad:c9:
         5a:c3:ff:f8:18:ab:0b:2a:83:93:bb:56:65:ed:cd:1a:6a:b8:
         20:7b:0a:1b:b9:e9:0c:9f:11:68:1a:65:d0:f1:0e:75:cc:e7:
         1c:66:cd:cc:f3:06:82:83:da:d0:0b:39:74:d4:ff:b4:19:c0:
         25:b4:15:37:39:89:de:5d:6c:0f:8d:07:41:dc:d9:a6:87:f3:
         c6:19:86:de:09:e3:9c:2d:32:c9:2c:9d:86:f7:dd:a2:87:00:
         99:18:5a:e1:6c:ce:e8:39
-----BEGIN CERTIFICATE-----
MIIFzzCCA7egAwIBAgICEAAwDQYJKoZIhvcNAQEEBQAwUDELMAkGA1UEBhMCVVMx
DTALBgNVBAgMBFVUQUgxFzAVBgNVBAcMDlNhbHQgTGFrZSBDaXR5MQwwCgYDVQQK
DANtc2QxCzAJBgNVBAMMAmNhMB4XDTIzMDMzMDAxMjQxMloXDTI0MDMyOTAxMjQx
MlowOzELMAkGA1UEBhMCVVMxDTALBgNVBAgMBFVUQUgxDDAKBgNVBAoMA21zZDEP
MA0GA1UEAwwGc2VydmVyMIICIjANBgkqhkiG9w0BAQEFAAOCAg8AMIICCgKCAgEA
oHxAprqeetVIdcYvyjmdoU3HxOfXl7iuW9slfB+kW3kfV3M2KZIQO8zjP3ftfHQg
cL6w26KBQVaCOq5t/gKIlPKt998cjLhAfUOJUD6yYsUFH5NqCEfnT0y4IFjCz509
LEJci53Dm45g00XEgkqofuNw1aR3UbFTszLZVYXD/+lpcefY1k1sLybfh0lKeLAw
oH25JWeq2IXi0U9wvNTj5910vOVXJpxpe69GnPFSy0dxTRrdCn/TOLpsjC/VMgHb
yUWaAJ8zuy/Aq9q78zJttzH0yfNK9ZR0zKkW/MI4+dVu8+BokLV42i0gb/9SM2uP
kWUNH1admst5dreCo0gHyoEk9zNqxcwL3TSeF02uCSDrnnAE5bG4dyFJRqnHelKU
VmqghpE+u8yAwjTXT6j0STGgeBzNSOLmIUoRJhYYGXCClQX1BBtlt8vWMQxq3nX/
TXUXKNJ/EopPsEa2B2qD5n/Rm2T21udMKb6Y4mPtmU7bLoqUKGQB4gzXzOa9yiih
G9HmRa8WCF4yO+uHjvwLuJ1p90OiLXPzjwJRlMCvQYQzXELI+15JykiuDw6Nlxhg
ugp4VRNVRjpARkdwa5MmpmYUPkrZ7a/YYjZJqs1EhgEpCRN556pXStOZAUjTCQem
fc4TRcK6k0OUxezIzk7kGALJkAhc1wz9n7PQ+lAedbMCAwEAAaOBxzCBxDAJBgNV
HRMEAjAAMCwGCWCGSAGG+EIBDQQfFh1PcGVuU1NMIEdlbmVyYXRlZCBDZXJ0aWZp
Y2F0ZTAdBgNVHQ4EFgQUbjZKKg8G5P48MKDSJ8HCQ+mfZDEwagYDVR0jBGMwYaFU
pFIwUDELMAkGA1UEBhMCVVMxDTALBgNVBAgMBFVUQUgxFzAVBgNVBAcMDlNhbHQg
TGFrZSBDaXR5MQwwCgYDVQQKDANtc2QxCzAJBgNVBAMMAmNhggkAqZt4cE20JMcw
DQYJKoZIhvcNAQEEBQADggIBACxVfhk4R/ClqEnm3KQMZ0X62WdyMjYFhdkWXTwA
fToIKpMpH+gMRfqdr5HfsNBCNlowTxjUkHhXYVFwCY6iraanlU8fsOYOm6riDVfh
IYuFBVAxPodSgRWeIrvd4kaLO4ych5NvooQdQE/YO4s/HKaQuNf744z7yXHtmFYn
wdPQfIA+XdtDHJuNLRonDjSvyr6vuTeYnS5SCtPOFgP7WxEYg8g2cQqJArf3EWGp
bL/Fkso36wsVyn801poNmnw9X/CX93qFKCSTz13luTYieAJayvIyCWYdm0p93bZM
+Ked2rg+DmhRjxi0lHs3WVqBoIaivildWT6kIbocJaFaqyE78UEfDj4XRnOnTN9Y
KiOiYPVDefO8l67yL6jmMi+bTCrCvGApWhN2kIeeSlICv5g2UbWwLRFTTrlcQZMM
C8bvwg1e9YXy6ma0LVpAKONhPizpXHZFWuGhVy3rA9fcUlATgPA+JF2Yoo4Nsnyq
ElT+s4dVPlVkT8389OU4tWPb0z6NEkWmmis1cS0BQFD83kaRQRbN95cDYGFRiKyt
yVrD//gYqwsqg5O7VmXtzRpquCB7Chu56QyfEWgaZdDxDnXM5xxmzczzBoKD2tAL
OXTU/7QZwCW0FTc5id5dbA+NB0Hc2aaH88YZht4J45wtMsksnYb33aKHAJkYWuFs
zug5
-----END CERTIFICATE-----
