Certificate:
    Data:
        Version: 3 (0x2)
        Serial Number: 4097 (0x1001)
    Signature Algorithm: md5WithRSAEncryption
        Issuer: C=US, ST=UTAH, L=Salt Lake City, O=msd, CN=ca
        Validity
            Not Before: Mar 30 01:25:37 2023 GMT
            Not After : Mar 29 01:25:37 2024 GMT
        Subject: C=US, ST=UTAH, O=msd, CN=client
        Subject Public Key Info:
            Public Key Algorithm: rsaEncryption
                Public-Key: (4096 bit)
                Modulus:
                    00:b3:9f:ca:35:0b:d9:8d:d8:d3:d7:24:14:1b:87:
                    48:d7:f9:44:f3:49:ce:00:b5:2a:90:df:a7:6c:a5:
                    7a:05:92:aa:18:2f:f4:c2:30:b6:34:13:fc:a5:42:
                    eb:b7:c4:da:af:ec:f2:2a:dd:e2:29:ad:ed:d4:cb:
                    68:30:30:7c:29:a7:f2:83:45:c9:f5:1a:36:5f:98:
                    41:8b:45:e8:38:6f:a8:78:00:c5:cb:b0:d1:ea:71:
                    ce:a1:47:ad:06:7f:59:78:fa:b5:c1:4e:56:0b:c5:
                    f6:9a:53:c7:b4:85:13:db:ed:ee:c0:5b:86:3c:a7:
                    aa:9c:aa:05:d7:9e:94:f8:2f:83:10:92:d5:8e:f9:
                    a1:62:46:c1:91:74:03:68:e5:84:86:be:83:ce:50:
                    8f:08:ad:55:51:a9:19:99:35:aa:82:c4:51:bc:e5:
                    76:b5:10:cb:33:55:91:ed:2f:09:a1:98:af:81:5a:
                    ff:ce:b2:50:d2:59:78:7c:f1:5b:15:58:b9:58:10:
                    f1:92:c6:28:db:cf:e8:36:7c:6b:1f:4b:8f:ca:19:
                    de:0c:ee:36:e8:dc:60:a3:dc:e4:54:af:e3:58:65:
                    34:b9:6f:95:a8:8b:89:57:30:8a:ee:e4:84:98:fe:
                    58:52:7b:64:58:c9:a9:ac:1a:ca:96:05:e9:56:28:
                    27:c0:65:7f:81:23:35:6e:64:8f:ce:ef:5c:8d:63:
                    48:0c:1d:3e:af:7f:c0:9c:51:66:27:0b:89:1d:b5:
                    7f:2e:d4:f2:f3:78:33:64:e5:18:00:5e:0f:4b:88:
                    60:21:dd:bd:b0:46:ab:54:29:90:6e:75:af:be:69:
                    dc:26:68:be:17:1f:da:b1:01:41:1d:17:08:ba:58:
                    a4:4d:ea:4e:63:cc:c7:35:c2:4a:68:cd:e5:33:90:
                    6c:37:2a:1b:0f:a9:dc:97:c7:21:17:9d:59:b3:fd:
                    98:2a:f7:db:a4:40:d1:42:04:6d:0a:5e:81:ef:65:
                    a3:42:71:83:5a:a4:7f:8b:1a:9b:d7:1e:4f:63:79:
                    4d:f2:08:ff:f9:7d:3b:bb:ef:7f:5a:8e:8d:75:0d:
                    db:86:63:d4:73:b5:92:04:f7:f9:bb:8b:09:88:5c:
                    56:a9:42:1d:92:c7:24:26:0c:c1:96:90:e8:6f:5b:
                    88:20:92:91:3e:92:74:0f:4d:12:75:c9:26:54:3e:
                    87:b9:de:ff:ee:d4:68:9f:bd:d3:ec:09:84:f2:22:
                    d7:76:da:e3:3d:90:e4:07:3e:84:14:0a:40:b4:24:
                    1d:26:02:54:f5:5d:e5:48:2a:0e:e2:7f:43:c1:fc:
                    dd:9c:7f:4c:41:94:15:17:ef:ca:e7:64:cc:60:e7:
                    f6:bc:e9
                Exponent: 65537 (0x10001)
        X509v3 extensions:
            X509v3 Basic Constraints: 
                CA:FALSE
            Netscape Comment: 
                OpenSSL Generated Certificate
            X509v3 Subject Key Identifier: 
                08:C9:62:C6:6D:EF:BA:06:18:00:6C:BA:2B:AF:33:11:B7:7B:2E:F4
            X509v3 Authority Key Identifier: 
                DirName:/C=US/ST=UTAH/L=Salt Lake City/O=msd/CN=ca
                serial:A9:9B:78:70:4D:B4:24:C7

    Signature Algorithm: md5WithRSAEncryption
         af:d7:27:d2:a8:4d:58:65:6f:bb:36:ed:30:9b:7a:52:31:bf:
         55:0e:03:9c:ec:3b:0a:ca:5c:cc:55:5e:80:00:a5:69:30:c1:
         49:f5:09:bc:e7:95:1e:d0:7b:bb:13:d4:51:fa:d7:36:ca:88:
         36:dd:d5:98:30:03:77:4b:ab:c2:83:01:88:8e:cf:8a:65:c1:
         b4:ec:ba:af:ce:e3:e0:50:7f:12:93:3a:39:c0:a8:09:6d:45:
         b0:bf:b5:26:07:8d:7a:1d:42:a6:78:53:c9:4e:48:e1:0f:ac:
         91:cb:da:e2:81:49:bb:32:c8:2a:05:89:34:cb:9f:2b:a1:39:
         59:a5:d6:be:13:0e:1d:0e:68:14:d3:51:88:85:8f:d2:81:03:
         27:8c:61:9f:82:cc:a4:79:dd:52:56:3b:f3:ed:93:cd:ee:20:
         c7:cd:2a:9b:4a:5c:aa:01:8e:19:fb:45:a9:ce:fa:a6:da:08:
         35:0a:56:df:33:ed:ac:52:e8:29:60:07:72:31:0a:08:85:f0:
         8f:df:29:23:bf:ab:e3:cf:3f:77:1d:0c:39:38:9a:2b:1f:a3:
         eb:69:d8:1a:bf:df:41:11:47:03:02:6f:fe:1e:40:39:80:a4:
         68:c8:a5:0d:19:8b:dd:73:eb:70:93:34:b7:a0:f3:47:66:f6:
         d5:2a:b4:75:6d:cb:ea:d5:c9:ab:fc:b9:a4:0c:4c:a4:61:02:
         4d:04:15:dd:ed:d8:59:f4:ea:c5:0c:fe:d7:8c:ab:00:19:dc:
         2c:3a:ee:52:28:8e:28:af:b0:b7:6c:44:82:38:e5:36:0d:e1:
         87:6b:c7:e9:56:1c:3b:4b:c6:eb:bd:56:d3:53:a3:8e:75:79:
         bd:10:27:40:2d:bf:43:2e:d3:89:27:e6:82:73:ea:ad:c4:fd:
         e0:23:b3:fb:cf:5c:23:0d:a7:5e:35:f2:2d:37:5d:50:2d:42:
         33:2c:ad:af:03:48:91:fd:e1:b9:57:7a:df:16:af:e8:30:53:
         db:c1:0e:a9:ef:ac:3a:f1:41:27:3c:24:22:3d:d6:a5:55:cf:
         80:82:a3:ea:7c:b8:67:57:d8:e0:9a:dd:88:a6:b3:eb:a7:3a:
         fe:45:0a:a6:1d:79:3f:0a:b9:65:77:78:ad:1c:b9:27:9d:b2:
         ce:09:d6:fe:1d:b3:37:33:ef:14:9b:68:83:f2:2a:7c:d3:09:
         16:f4:b9:40:21:0e:15:f8:cd:25:04:e7:e8:e3:b8:3e:5e:a8:
         c6:35:98:ba:5f:ea:1d:71:bb:f5:ba:0f:22:ca:78:8e:dc:09:
         d2:3a:cc:0f:b8:98:88:aa:a7:cf:0f:f2:5e:34:a4:2e:af:5b:
         bf:73:50:d7:95:54:39:eb
-----BEGIN CERTIFICATE-----
MIIFzzCCA7egAwIBAgICEAEwDQYJKoZIhvcNAQEEBQAwUDELMAkGA1UEBhMCVVMx
DTALBgNVBAgMBFVUQUgxFzAVBgNVBAcMDlNhbHQgTGFrZSBDaXR5MQwwCgYDVQQK
DANtc2QxCzAJBgNVBAMMAmNhMB4XDTIzMDMzMDAxMjUzN1oXDTI0MDMyOTAxMjUz
N1owOzELMAkGA1UEBhMCVVMxDTALBgNVBAgMBFVUQUgxDDAKBgNVBAoMA21zZDEP
MA0GA1UEAwwGY2xpZW50MIICIjANBgkqhkiG9w0BAQEFAAOCAg8AMIICCgKCAgEA
s5/KNQvZjdjT1yQUG4dI1/lE80nOALUqkN+nbKV6BZKqGC/0wjC2NBP8pULrt8Ta
r+zyKt3iKa3t1MtoMDB8Kafyg0XJ9Ro2X5hBi0XoOG+oeADFy7DR6nHOoUetBn9Z
ePq1wU5WC8X2mlPHtIUT2+3uwFuGPKeqnKoF156U+C+DEJLVjvmhYkbBkXQDaOWE
hr6DzlCPCK1VUakZmTWqgsRRvOV2tRDLM1WR7S8JoZivgVr/zrJQ0ll4fPFbFVi5
WBDxksYo28/oNnxrH0uPyhneDO426Nxgo9zkVK/jWGU0uW+VqIuJVzCK7uSEmP5Y
UntkWMmprBrKlgXpVignwGV/gSM1bmSPzu9cjWNIDB0+r3/AnFFmJwuJHbV/LtTy
83gzZOUYAF4PS4hgId29sEarVCmQbnWvvmncJmi+Fx/asQFBHRcIulikTepOY8zH
NcJKaM3lM5BsNyobD6ncl8chF51Zs/2YKvfbpEDRQgRtCl6B72WjQnGDWqR/ixqb
1x5PY3lN8gj/+X07u+9/Wo6NdQ3bhmPUc7WSBPf5u4sJiFxWqUIdksckJgzBlpDo
b1uIIJKRPpJ0D00SdckmVD6Hud7/7tRon73T7AmE8iLXdtrjPZDkBz6EFApAtCQd
JgJU9V3lSCoO4n9DwfzdnH9MQZQVF+/K52TMYOf2vOkCAwEAAaOBxzCBxDAJBgNV
HRMEAjAAMCwGCWCGSAGG+EIBDQQfFh1PcGVuU1NMIEdlbmVyYXRlZCBDZXJ0aWZp
Y2F0ZTAdBgNVHQ4EFgQUCMlixm3vugYYAGy6K68zEbd7LvQwagYDVR0jBGMwYaFU
pFIwUDELMAkGA1UEBhMCVVMxDTALBgNVBAgMBFVUQUgxFzAVBgNVBAcMDlNhbHQg
TGFrZSBDaXR5MQwwCgYDVQQKDANtc2QxCzAJBgNVBAMMAmNhggkAqZt4cE20JMcw
DQYJKoZIhvcNAQEEBQADggIBAK/XJ9KoTVhlb7s27TCbelIxv1UOA5zsOwrKXMxV
XoAApWkwwUn1CbznlR7Qe7sT1FH61zbKiDbd1ZgwA3dLq8KDAYiOz4plwbTsuq/O
4+BQfxKTOjnAqAltRbC/tSYHjXodQqZ4U8lOSOEPrJHL2uKBSbsyyCoFiTTLnyuh
OVml1r4TDh0OaBTTUYiFj9KBAyeMYZ+CzKR53VJWO/Ptk83uIMfNKptKXKoBjhn7
RanO+qbaCDUKVt8z7axS6ClgB3IxCgiF8I/fKSO/q+PPP3cdDDk4misfo+tp2Bq/
30ERRwMCb/4eQDmApGjIpQ0Zi91z63CTNLeg80dm9tUqtHVty+rVyav8uaQMTKRh
Ak0EFd3t2Fn06sUM/teMqwAZ3Cw67lIojiivsLdsRII45TYN4Ydrx+lWHDtLxuu9
VtNTo451eb0QJ0Atv0Mu04kn5oJz6q3E/eAjs/vPXCMNp1418i03XVAtQjMsra8D
SJH94blXet8Wr+gwU9vBDqnvrDrxQSc8JCI91qVVz4CCo+p8uGdX2OCa3Yims+un
Ov5FCqYdeT8KuWV3eK0cuSedss4J1v4dszcz7xSbaIPyKnzTCRb0uUAhDhX4zSUE
5+jjuD5eqMY1mLpf6h1xu/W6DyLKeI7cCdI6zA+4mIiqp88P8l40pC6vW79zUNeV
VDnr
-----END CERTIFICATE-----
